; ModuleID = '56/677.c'
source_filename = "56/677.c"
target datalayout = "e-m:e-p270:32:32-p271:32:32-p272:64:64-i64:64-f80:128-n8:16:32:64-S128"
target triple = "x86_64-pc-linux-gnu"

@.str = private unnamed_addr constant [4 x i8] c"%5d\00", align 1
@.str.1 = private unnamed_addr constant [4 x i8] c"%d\0A\00", align 1

; Function Attrs: noinline nounwind uwtable
define dso_local i32 @main() #0 {
  %1 = alloca i32, align 4
  %2 = alloca i32, align 4
  %3 = alloca i32, align 4
  %4 = alloca i32, align 4
  %5 = alloca i32, align 4
  %6 = alloca i32, align 4
  %7 = alloca i32, align 4
  store i32 0, i32* %1, align 4
  %8 = call i32 (i8*, ...) @__isoc99_scanf(i8* getelementptr inbounds ([4 x i8], [4 x i8]* @.str, i64 0, i64 0), i32* %7)
  %9 = load i32, i32* %7, align 4
  %10 = sdiv i32 %9, 10000
  store i32 %10, i32* %2, align 4
  %11 = load i32, i32* %7, align 4
  %12 = srem i32 %11, 10000
  %13 = sdiv i32 %12, 1000
  store i32 %13, i32* %3, align 4
  %14 = load i32, i32* %7, align 4
  %15 = srem i32 %14, 1000
  %16 = sdiv i32 %15, 100
  store i32 %16, i32* %4, align 4
  %17 = load i32, i32* %7, align 4
  %18 = srem i32 %17, 100
  %19 = sdiv i32 %18, 10
  store i32 %19, i32* %5, align 4
  %20 = load i32, i32* %7, align 4
  %21 = srem i32 %20, 10
  store i32 %21, i32* %6, align 4
  %22 = load i32, i32* %6, align 4
  %23 = mul nsw i32 %22, 10000
  %24 = load i32, i32* %5, align 4
  %25 = mul nsw i32 %24, 1000
  %26 = add nsw i32 %23, %25
  %27 = load i32, i32* %4, align 4
  %28 = mul nsw i32 %27, 100
  %29 = add nsw i32 %26, %28
  %30 = load i32, i32* %3, align 4
  %31 = mul nsw i32 %30, 10
  %32 = add nsw i32 %29, %31
  %33 = load i32, i32* %2, align 4
  %34 = add nsw i32 %32, %33
  store i32 %34, i32* %7, align 4
  br label %35

35:                                               ; preds = %39, %0
  %36 = load i32, i32* %7, align 4
  %37 = srem i32 %36, 10
  %38 = icmp eq i32 %37, 0
  br i1 %38, label %39, label %42

39:                                               ; preds = %35
  %40 = load i32, i32* %7, align 4
  %41 = sdiv i32 %40, 10
  store i32 %41, i32* %7, align 4
  br label %35

42:                                               ; preds = %35
  %43 = load i32, i32* %7, align 4
  %44 = call i32 (i8*, ...) @printf(i8* getelementptr inbounds ([4 x i8], [4 x i8]* @.str.1, i64 0, i64 0), i32 %43)
  br label %45

45:                                               ; preds = %42
  %46 = load i32, i32* %1, align 4
  ret i32 %46
}

declare dso_local i32 @__isoc99_scanf(i8*, ...) #1

declare dso_local i32 @printf(i8*, ...) #1


!llvm.module.flags = !{!0}
!llvm.ident = !{!1}

!0 = !{i32 1, !"wchar_size", i32 4}
!1 = !{!"clang version 10.0.0-4ubuntu1 "}
